target datalayout = "e-m:e-p270:32:32-p271:32:32-p272:64:64-i64:64-i128:128-f80:128-n8:16:32:64-S128"
target triple = "x86_64-pc-linux-gnu"

%struct.Vec_Int_t_ = type { i32, i32, ptr }
%struct.Bmcs_Man_t_ = type { ptr, ptr, ptr, ptr, %struct.Vec_Ptr_t_, %struct.Vec_Int_t_, %struct.Vec_Int_t_, [100 x ptr], i32, i32, i32, i64, i64, i64, i64 }
%struct.Vec_Ptr_t_ = type { i32, i32, ptr }
%struct.Cnf_Dat_t_ = type { ptr, i32, i32, i32, ptr, ptr, ptr, ptr, ptr, ptr }

; Function Attrs: nounwind uwtable
define void @Bmcs_ManAddCnf(ptr noundef %0, ptr noundef %1, ptr noundef %2) #0 {
  %4 = alloca ptr, align 8
  %5 = alloca ptr, align 8
  %6 = alloca ptr, align 8
  %7 = alloca i32, align 4
  store ptr %0, ptr %4, align 8
  store ptr %1, ptr %5, align 8
  store ptr %2, ptr %6, align 8
  %8 = load ptr, ptr %4, align 8
  %9 = getelementptr inbounds %struct.Bmcs_Man_t_, ptr %8, i32 0, i32 9
  %10 = load i32, ptr %9, align 4
  store i32 %10, ptr %7, align 4
  br label %11

11:                                               ; preds = %20, %3
  %12 = load i32, ptr %7, align 4
  %13 = load ptr, ptr %4, align 8
  %14 = getelementptr inbounds %struct.Bmcs_Man_t_, ptr %13, i32 0, i32 8
  %15 = load i32, ptr %14, align 8
  %16 = icmp slt i32 %12, %15
  br i1 %16, label %17, label %23

17:                                               ; preds = %11
  %18 = load ptr, ptr %5, align 8
  %19 = call i32 @satoko_add_variable(ptr noundef %18, i8 noundef signext 0)
  br label %20

20:                                               ; preds = %17
  %21 = load i32, ptr %7, align 4
  %22 = add nsw i32 %21, 1
  store i32 %22, ptr %7, align 4
  br label %11, !llvm.loop !36

23:                                               ; preds = %11
  store i32 0, ptr %7, align 4
  br label %24

24:                                               ; preds = %63, %23
  %25 = load i32, ptr %7, align 4
  %26 = load ptr, ptr %6, align 8
  %27 = getelementptr inbounds %struct.Cnf_Dat_t_, ptr %26, i32 0, i32 3
  %28 = load i32, ptr %27, align 8
  %29 = icmp slt i32 %25, %28
  br i1 %29, label %30, label %66

30:                                               ; preds = %24
  %31 = load ptr, ptr %5, align 8
  %32 = load ptr, ptr %6, align 8
  %33 = getelementptr inbounds %struct.Cnf_Dat_t_, ptr %32, i32 0, i32 4
  %34 = load ptr, ptr %33, align 8
  %35 = load i32, ptr %7, align 4
  %36 = sext i32 %35 to i64
  %37 = getelementptr inbounds ptr, ptr %34, i64 %36
  %38 = load ptr, ptr %37, align 8
  %39 = load ptr, ptr %6, align 8
  %40 = getelementptr inbounds %struct.Cnf_Dat_t_, ptr %39, i32 0, i32 4
  %41 = load ptr, ptr %40, align 8
  %42 = load i32, ptr %7, align 4
  %43 = add nsw i32 %42, 1
  %44 = sext i32 %43 to i64
  %45 = getelementptr inbounds ptr, ptr %41, i64 %44
  %46 = load ptr, ptr %45, align 8
  %47 = load ptr, ptr %6, align 8
  %48 = getelementptr inbounds %struct.Cnf_Dat_t_, ptr %47, i32 0, i32 4
  %49 = load ptr, ptr %48, align 8
  %50 = load i32, ptr %7, align 4
  %51 = sext i32 %50 to i64
  %52 = getelementptr inbounds ptr, ptr %49, i64 %51
  %53 = load ptr, ptr %52, align 8
  %54 = ptrtoint ptr %46 to i64
  %55 = ptrtoint ptr %53 to i64
  %56 = sub i64 %54, %55
  %57 = sdiv exact i64 %56, 4
  %58 = trunc i64 %57 to i32
  %59 = call i32 @satoko_add_clause(ptr noundef %31, ptr noundef %38, i32 noundef %58)
  %60 = icmp ne i32 %59, 0
  br i1 %60, label %62, label %61

61:                                               ; preds = %30
  br label %62

62:                                               ; preds = %61, %30
  br label %63

63:                                               ; preds = %62
  %64 = load i32, ptr %7, align 4
  %65 = add nsw i32 %64, 1
  store i32 %65, ptr %7, align 4
  br label %24, !llvm.loop !37

66:                                               ; preds = %24
  ret void
}