; Function Attrs: nounwind uwtable
define void @Bmcs_ManAddCnf(ptr noundef readonly captures(none) %0, ptr noundef %1, ptr noundef readonly captures(none) %2) local_unnamed_addr #0 {
  %4 = getelementptr inbounds nuw i8, ptr %0, i64 884
  %5 = load i32, ptr %4, align 4
  %6 = getelementptr inbounds nuw i8, ptr %0, i64 880
  %7 = load i32, ptr %6, align 8
  %8 = icmp slt i32 %5, %7
  br i1 %8, label %.lr.ph, label %.preheader

.preheader:                                       ; preds = %.lr.ph, %3
  %9 = getelementptr inbounds nuw i8, ptr %2, i64 16
  %10 = load i32, ptr %9, align 8
  %11 = icmp sgt i32 %10, 0
  br i1 %11, label %.lr.ph16, label %._crit_edge

.lr.ph16:                                         ; preds = %.preheader
  %12 = getelementptr inbounds nuw i8, ptr %2, i64 24
  br label %17

.lr.ph:                                           ; preds = %3, %.lr.ph
  %.014 = phi i32 [ %14, %.lr.ph ], [ %5, %3 ]
  %13 = tail call i32 @satoko_add_variable(ptr noundef %1, i8 noundef signext 0) #23
  %14 = add nsw i32 %.014, 1
  %15 = load i32, ptr %6, align 8
  %16 = icmp slt i32 %14, %15
  br i1 %16, label %.lr.ph, label %.preheader, !llvm.loop !36

17:                                               ; preds = %.lr.ph16, %17
  %indvars.iv = phi i64 [ 0, %.lr.ph16 ], [ %indvars.iv.next, %17 ]
  %18 = load ptr, ptr %12, align 8
  %19 = getelementptr inbounds nuw ptr, ptr %18, i64 %indvars.iv
  %20 = load ptr, ptr %19, align 8
  %indvars.iv.next = add nuw nsw i64 %indvars.iv, 1
  %21 = getelementptr inbounds nuw ptr, ptr %18, i64 %indvars.iv.next
  %22 = load ptr, ptr %21, align 8
  %23 = ptrtoint ptr %22 to i64
  %24 = ptrtoint ptr %20 to i64
  %25 = sub i64 %23, %24
  %26 = lshr exact i64 %25, 2
  %27 = trunc i64 %26 to i32
  %28 = tail call i32 @satoko_add_clause(ptr noundef %1, ptr noundef %20, i32 noundef %27) #23
  %29 = load i32, ptr %9, align 8
  %30 = sext i32 %29 to i64
  %31 = icmp slt i64 %indvars.iv.next, %30
  br i1 %31, label %17, label %._crit_edge, !llvm.loop !37

._crit_edge:                                      ; preds = %17, %.preheader
  ret void
}